target datalayout = "e-m:e-p270:32:32-p271:32:32-p272:64:64-i64:64-i128:128-f80:128-n8:16:32:64-S128"
target triple = "x86_64-pc-linux-gnu"

; Function Attrs: inlinehint mustprogress nounwind uwtable
define linkonce_odr noundef nonnull align 4 dereferenceable(4) ptr @_ZSt3minIiERKT_S2_S2_(ptr noundef nonnull align 4 dereferenceable(4) %0, ptr noundef nonnull align 4 dereferenceable(4) %1) #20 comdat {
  %3 = alloca ptr, align 8
  %4 = alloca ptr, align 8
  %5 = alloca ptr, align 8
  store ptr %0, ptr %4, align 8, !tbaa !22
  store ptr %1, ptr %5, align 8, !tbaa !22
  %6 = load ptr, ptr %5, align 8, !tbaa !22
  %7 = load i32, ptr %6, align 4, !tbaa !9
  %8 = load ptr, ptr %4, align 8, !tbaa !22
  %9 = load i32, ptr %8, align 4, !tbaa !9
  %10 = icmp slt i32 %7, %9
  br i1 %10, label %11, label %13

11:                                               ; preds = %2
  %12 = load ptr, ptr %5, align 8, !tbaa !22
  store ptr %12, ptr %3, align 8
  br label %15

13:                                               ; preds = %2
  %14 = load ptr, ptr %4, align 8, !tbaa !22
  store ptr %14, ptr %3, align 8
  br label %15

15:                                               ; preds = %13, %11
  %16 = load ptr, ptr %3, align 8
  ret ptr %16
}

; Function Attrs: inlinehint mustprogress nounwind uwtable
define linkonce_odr noundef nonnull align 4 dereferenceable(4) ptr @_ZSt3maxIiERKT_S2_S2_(ptr noundef nonnull align 4 dereferenceable(4) %0, ptr noundef nonnull align 4 dereferenceable(4) %1) #20 comdat {
  %3 = alloca ptr, align 8
  %4 = alloca ptr, align 8
  %5 = alloca ptr, align 8
  store ptr %0, ptr %4, align 8, !tbaa !22
  store ptr %1, ptr %5, align 8, !tbaa !22
  %6 = load ptr, ptr %4, align 8, !tbaa !22
  %7 = load i32, ptr %6, align 4, !tbaa !9
  %8 = load ptr, ptr %5, align 8, !tbaa !22
  %9 = load i32, ptr %8, align 4, !tbaa !9
  %10 = icmp slt i32 %7, %9
  br i1 %10, label %11, label %13

11:                                               ; preds = %2
  %12 = load ptr, ptr %5, align 8, !tbaa !22
  store ptr %12, ptr %3, align 8
  br label %15

13:                                               ; preds = %2
  %14 = load ptr, ptr %4, align 8, !tbaa !22
  store ptr %14, ptr %3, align 8
  br label %15

15:                                               ; preds = %13, %11
  %16 = load ptr, ptr %3, align 8
  ret ptr %16
}

; Function Attrs: inlinehint mustprogress nounwind uwtable
define linkonce_odr noundef nofpclass(nan inf) float @_ZSt4sqrtf(float noundef nofpclass(nan inf) %0) #20 comdat {
  %2 = alloca float, align 4
  store float %0, ptr %2, align 4, !tbaa !406
  %3 = load float, ptr %2, align 4, !tbaa !406
  %4 = call fast float @llvm.sqrt.f32(float %3)
  ret float %4
}

; Function Attrs: mustprogress uwtable
define internal void @_ZN4ncnnL25get_optimal_tile_mnk_int8EiiiRiS0_S0_i(i32 noundef %0, i32 noundef %1, i32 noundef %2, ptr noundef nonnull align 4 dereferenceable(4) %3, ptr noundef nonnull align 4 dereferenceable(4) %4, ptr noundef nonnull align 4 dereferenceable(4) %5, i32 noundef %6) #0 {
  %8 = alloca i32, align 4
  %9 = alloca i32, align 4
  %10 = alloca i32, align 4
  %11 = alloca ptr, align 8
  %12 = alloca ptr, align 8
  %13 = alloca ptr, align 8
  %14 = alloca i32, align 4
  %15 = alloca i64, align 8
  %16 = alloca i32, align 4
  %17 = alloca i32, align 4
  %18 = alloca i32, align 4
  %19 = alloca i32, align 4
  %20 = alloca i32, align 4
  %21 = alloca i32, align 4
  %22 = alloca i32, align 4
  %23 = alloca i32, align 4
  %24 = alloca i32, align 4
  %25 = alloca i32, align 4
  %26 = alloca i32, align 4
  %27 = alloca i32, align 4
  %28 = alloca i32, align 4
  %29 = alloca i32, align 4
  %30 = alloca i32, align 4
  %31 = alloca i32, align 4
  %32 = alloca i32, align 4
  %33 = alloca i32, align 4
  %34 = alloca i32, align 4
  store i32 %0, ptr %8, align 4, !tbaa !9
  store i32 %1, ptr %9, align 4, !tbaa !9
  store i32 %2, ptr %10, align 4, !tbaa !9
  store ptr %3, ptr %11, align 8, !tbaa !22
  store ptr %4, ptr %12, align 8, !tbaa !22
  store ptr %5, ptr %13, align 8, !tbaa !22
  store i32 %6, ptr %14, align 4, !tbaa !9
  call void @llvm.lifetime.start.p0(i64 8, ptr %15) #5
  %35 = call noundef i32 @_ZN4ncnn25get_cpu_level2_cache_sizeEv()
  %36 = sext i32 %35 to i64
  %37 = udiv i64 %36, 2
  %38 = trunc i64 %37 to i32
  %39 = sext i32 %38 to i64
  store i64 %39, ptr %15, align 8, !tbaa !148
  %40 = load i32, ptr %14, align 4, !tbaa !9
  %41 = icmp eq i32 %40, 0
  br i1 %41, label %42, label %44

42:                                               ; preds = %7
  %43 = call noundef i32 @_ZN4ncnn26get_physical_big_cpu_countEv()
  store i32 %43, ptr %14, align 4, !tbaa !9
  br label %44

44:                                               ; preds = %42, %7
  call void @llvm.lifetime.start.p0(i64 4, ptr %16) #5
  %45 = load i64, ptr %15, align 8, !tbaa !148
  %46 = uitofp i64 %45 to float
  %47 = fdiv fast float %46, 3.000000e+00
  %48 = call fast noundef nofpclass(nan inf) float @_ZSt4sqrtf(float noundef nofpclass(nan inf) %47)
  %49 = fptosi float %48 to i32
  store i32 %49, ptr %16, align 4, !tbaa !9
  call void @llvm.lifetime.start.p0(i64 4, ptr %17) #5
  store i32 16, ptr %17, align 4, !tbaa !9
  call void @llvm.lifetime.start.p0(i64 4, ptr %18) #5
  %50 = load i32, ptr %16, align 4, !tbaa !9
  %51 = sdiv i32 %50, 16
  %52 = mul nsw i32 %51, 16
  store i32 %52, ptr %18, align 4, !tbaa !9
  %53 = call noundef nonnull align 4 dereferenceable(4) ptr @_ZSt3maxIiERKT_S2_S2_(ptr noundef nonnull align 4 dereferenceable(4) %17, ptr noundef nonnull align 4 dereferenceable(4) %18)
  %54 = load i32, ptr %53, align 4, !tbaa !9
  %55 = load ptr, ptr %11, align 8, !tbaa !22
  store i32 %54, ptr %55, align 4, !tbaa !9
  call void @llvm.lifetime.end.p0(i64 4, ptr %18) #5
  call void @llvm.lifetime.end.p0(i64 4, ptr %17) #5
  call void @llvm.lifetime.start.p0(i64 4, ptr %19) #5
  %56 = call noundef i32 @_ZN4ncnn22get_physical_cpu_countEv()
  store i32 %56, ptr %19, align 4, !tbaa !9
  %57 = call noundef nonnull align 4 dereferenceable(4) ptr @_ZSt3minIiERKT_S2_S2_(ptr noundef nonnull align 4 dereferenceable(4) %14, ptr noundef nonnull align 4 dereferenceable(4) %19)
  %58 = load i32, ptr %57, align 4, !tbaa !9
  %59 = load ptr, ptr %11, align 8, !tbaa !22
  %60 = load i32, ptr %59, align 4, !tbaa !9
  %61 = mul nsw i32 %60, %58
  store i32 %61, ptr %59, align 4, !tbaa !9
  call void @llvm.lifetime.end.p0(i64 4, ptr %19) #5
  call void @llvm.lifetime.start.p0(i64 4, ptr %20) #5
  %62 = load i32, ptr %8, align 4, !tbaa !9
  %63 = load ptr, ptr %11, align 8, !tbaa !22
  %64 = load i32, ptr %63, align 4, !tbaa !9
  %65 = add nsw i32 %62, %64
  %66 = sub nsw i32 %65, 1
  %67 = load ptr, ptr %11, align 8, !tbaa !22
  %68 = load i32, ptr %67, align 4, !tbaa !9
  %69 = sdiv i32 %66, %68
  store i32 %69, ptr %20, align 4, !tbaa !9
  %70 = load ptr, ptr %11, align 8, !tbaa !22
  call void @llvm.lifetime.start.p0(i64 4, ptr %21) #5
  %71 = load i32, ptr %8, align 4, !tbaa !9
  %72 = load i32, ptr %20, align 4, !tbaa !9
  %73 = add nsw i32 %71, %72
  %74 = sub nsw i32 %73, 1
  %75 = load i32, ptr %20, align 4, !tbaa !9
  %76 = sdiv i32 %74, %75
  %77 = add nsw i32 %76, 15
  %78 = sdiv i32 %77, 16
  %79 = mul nsw i32 %78, 16
  store i32 %79, ptr %21, align 4, !tbaa !9
  %80 = call noundef nonnull align 4 dereferenceable(4) ptr @_ZSt3minIiERKT_S2_S2_(ptr noundef nonnull align 4 dereferenceable(4) %70, ptr noundef nonnull align 4 dereferenceable(4) %21)
  %81 = load i32, ptr %80, align 4, !tbaa !9
  %82 = load ptr, ptr %11, align 8, !tbaa !22
  store i32 %81, ptr %82, align 4, !tbaa !9
  call void @llvm.lifetime.end.p0(i64 4, ptr %21) #5
  %83 = load i32, ptr %14, align 4, !tbaa !9
  %84 = icmp sgt i32 %83, 1
  br i1 %84, label %85, label %99

85:                                               ; preds = %44
  %86 = load ptr, ptr %11, align 8, !tbaa !22
  call void @llvm.lifetime.start.p0(i64 4, ptr %22) #5
  call void @llvm.lifetime.start.p0(i64 4, ptr %23) #5
  store i32 1, ptr %23, align 4, !tbaa !9
  call void @llvm.lifetime.start.p0(i64 4, ptr %24) #5
  %87 = load ptr, ptr %11, align 8, !tbaa !22
  %88 = load i32, ptr %87, align 4, !tbaa !9
  %89 = load i32, ptr %14, align 4, !tbaa !9
  %90 = sdiv i32 %88, %89
  store i32 %90, ptr %24, align 4, !tbaa !9
  %91 = call noundef nonnull align 4 dereferenceable(4) ptr @_ZSt3maxIiERKT_S2_S2_(ptr noundef nonnull align 4 dereferenceable(4) %23, ptr noundef nonnull align 4 dereferenceable(4) %24)
  %92 = load i32, ptr %91, align 4, !tbaa !9
  %93 = add nsw i32 %92, 15
  %94 = sdiv i32 %93, 16
  %95 = mul nsw i32 %94, 16
  store i32 %95, ptr %22, align 4, !tbaa !9
  %96 = call noundef nonnull align 4 dereferenceable(4) ptr @_ZSt3minIiERKT_S2_S2_(ptr noundef nonnull align 4 dereferenceable(4) %86, ptr noundef nonnull align 4 dereferenceable(4) %22)
  %97 = load i32, ptr %96, align 4, !tbaa !9
  %98 = load ptr, ptr %11, align 8, !tbaa !22
  store i32 %97, ptr %98, align 4, !tbaa !9
  call void @llvm.lifetime.end.p0(i64 4, ptr %24) #5
  call void @llvm.lifetime.end.p0(i64 4, ptr %23) #5
  call void @llvm.lifetime.end.p0(i64 4, ptr %22) #5
  br label %99

99:                                               ; preds = %85, %44
  call void @llvm.lifetime.end.p0(i64 4, ptr %20) #5
  call void @llvm.lifetime.end.p0(i64 4, ptr %16) #5
  call void @llvm.lifetime.start.p0(i64 4, ptr %25) #5
  %100 = load i64, ptr %15, align 8, !tbaa !148
  %101 = uitofp i64 %100 to float
  %102 = call fast noundef nofpclass(nan inf) float @_ZSt4sqrtf(float noundef nofpclass(nan inf) %101)
  %103 = load ptr, ptr %11, align 8, !tbaa !22
  %104 = load i32, ptr %103, align 4, !tbaa !9
  %105 = sitofp i32 %104 to float
  %106 = fsub fast float %102, %105
  %107 = fptosi float %106 to i32
  store i32 %107, ptr %25, align 4, !tbaa !9
  call void @llvm.lifetime.start.p0(i64 4, ptr %26) #5
  store i32 16, ptr %26, align 4, !tbaa !9
  call void @llvm.lifetime.start.p0(i64 4, ptr %27) #5
  %108 = load i32, ptr %25, align 4, !tbaa !9
  %109 = sdiv i32 %108, 16
  %110 = mul nsw i32 %109, 16
  store i32 %110, ptr %27, align 4, !tbaa !9
  %111 = call noundef nonnull align 4 dereferenceable(4) ptr @_ZSt3maxIiERKT_S2_S2_(ptr noundef nonnull align 4 dereferenceable(4) %26, ptr noundef nonnull align 4 dereferenceable(4) %27)
  %112 = load i32, ptr %111, align 4, !tbaa !9
  %113 = load ptr, ptr %13, align 8, !tbaa !22
  store i32 %112, ptr %113, align 4, !tbaa !9
  call void @llvm.lifetime.end.p0(i64 4, ptr %27) #5
  call void @llvm.lifetime.end.p0(i64 4, ptr %26) #5
  call void @llvm.lifetime.start.p0(i64 4, ptr %28) #5
  %114 = load i32, ptr %10, align 4, !tbaa !9
  %115 = load ptr, ptr %13, align 8, !tbaa !22
  %116 = load i32, ptr %115, align 4, !tbaa !9
  %117 = add nsw i32 %114, %116
  %118 = sub nsw i32 %117, 1
  %119 = load ptr, ptr %13, align 8, !tbaa !22
  %120 = load i32, ptr %119, align 4, !tbaa !9
  %121 = sdiv i32 %118, %120
  store i32 %121, ptr %28, align 4, !tbaa !9
  %122 = load ptr, ptr %13, align 8, !tbaa !22
  call void @llvm.lifetime.start.p0(i64 4, ptr %29) #5
  %123 = load i32, ptr %10, align 4, !tbaa !9
  %124 = load i32, ptr %28, align 4, !tbaa !9
  %125 = add nsw i32 %123, %124
  %126 = sub nsw i32 %125, 1
  %127 = load i32, ptr %28, align 4, !tbaa !9
  %128 = sdiv i32 %126, %127
  %129 = add nsw i32 %128, 15
  %130 = sdiv i32 %129, 16
  %131 = mul nsw i32 %130, 16
  store i32 %131, ptr %29, align 4, !tbaa !9
  %132 = call noundef nonnull align 4 dereferenceable(4) ptr @_ZSt3minIiERKT_S2_S2_(ptr noundef nonnull align 4 dereferenceable(4) %122, ptr noundef nonnull align 4 dereferenceable(4) %29)
  %133 = load i32, ptr %132, align 4, !tbaa !9
  %134 = load ptr, ptr %13, align 8, !tbaa !22
  store i32 %133, ptr %134, align 4, !tbaa !9
  call void @llvm.lifetime.end.p0(i64 4, ptr %29) #5
  call void @llvm.lifetime.end.p0(i64 4, ptr %28) #5
  call void @llvm.lifetime.end.p0(i64 4, ptr %25) #5
  %135 = load i32, ptr %9, align 4, !tbaa !9
  %136 = icmp sgt i32 %135, 0
  br i1 %136, label %137, label %182

137:                                              ; preds = %99
  call void @llvm.lifetime.start.p0(i64 4, ptr %30) #5
  %138 = load i64, ptr %15, align 8, !tbaa !148
  %139 = load ptr, ptr %11, align 8, !tbaa !22
  %140 = load i32, ptr %139, align 4, !tbaa !9
  %141 = load ptr, ptr %13, align 8, !tbaa !22
  %142 = load i32, ptr %141, align 4, !tbaa !9
  %143 = mul nsw i32 %140, %142
  %144 = sext i32 %143 to i64
  %145 = sub i64 %138, %144
  %146 = load ptr, ptr %11, align 8, !tbaa !22
  %147 = load i32, ptr %146, align 4, !tbaa !9
  %148 = mul nsw i32 %147, 2
  %149 = load ptr, ptr %13, align 8, !tbaa !22
  %150 = load i32, ptr %149, align 4, !tbaa !9
  %151 = add nsw i32 %148, %150
  %152 = sext i32 %151 to i64
  %153 = udiv i64 %145, %152
  %154 = trunc i64 %153 to i32
  store i32 %154, ptr %30, align 4, !tbaa !9
  call void @llvm.lifetime.start.p0(i64 4, ptr %31) #5
  store i32 4, ptr %31, align 4, !tbaa !9
  call void @llvm.lifetime.start.p0(i64 4, ptr %32) #5
  %155 = load i32, ptr %30, align 4, !tbaa !9
  %156 = sdiv i32 %155, 4
  %157 = mul nsw i32 %156, 4
  store i32 %157, ptr %32, align 4, !tbaa !9
  %158 = call noundef nonnull align 4 dereferenceable(4) ptr @_ZSt3maxIiERKT_S2_S2_(ptr noundef nonnull align 4 dereferenceable(4) %31, ptr noundef nonnull align 4 dereferenceable(4) %32)
  %159 = load i32, ptr %158, align 4, !tbaa !9
  %160 = load ptr, ptr %12, align 8, !tbaa !22
  store i32 %159, ptr %160, align 4, !tbaa !9
  call void @llvm.lifetime.end.p0(i64 4, ptr %32) #5
  call void @llvm.lifetime.end.p0(i64 4, ptr %31) #5
  call void @llvm.lifetime.start.p0(i64 4, ptr %33) #5
  %161 = load i32, ptr %9, align 4, !tbaa !9
  %162 = load ptr, ptr %12, align 8, !tbaa !22
  %163 = load i32, ptr %162, align 4, !tbaa !9
  %164 = add nsw i32 %161, %163
  %165 = sub nsw i32 %164, 1
  %166 = load ptr, ptr %12, align 8, !tbaa !22
  %167 = load i32, ptr %166, align 4, !tbaa !9
  %168 = sdiv i32 %165, %167
  store i32 %168, ptr %33, align 4, !tbaa !9
  %169 = load ptr, ptr %12, align 8, !tbaa !22
  call void @llvm.lifetime.start.p0(i64 4, ptr %34) #5
  %170 = load i32, ptr %9, align 4, !tbaa !9
  %171 = load i32, ptr %33, align 4, !tbaa !9
  %172 = add nsw i32 %170, %171
  %173 = sub nsw i32 %172, 1
  %174 = load i32, ptr %33, align 4, !tbaa !9
  %175 = sdiv i32 %173, %174
  %176 = add nsw i32 %175, 3
  %177 = sdiv i32 %176, 4
  %178 = mul nsw i32 %177, 4
  store i32 %178, ptr %34, align 4, !tbaa !9
  %179 = call noundef nonnull align 4 dereferenceable(4) ptr @_ZSt3minIiERKT_S2_S2_(ptr noundef nonnull align 4 dereferenceable(4) %169, ptr noundef nonnull align 4 dereferenceable(4) %34)
  %180 = load i32, ptr %179, align 4, !tbaa !9
  %181 = load ptr, ptr %12, align 8, !tbaa !22
  store i32 %180, ptr %181, align 4, !tbaa !9
  call void @llvm.lifetime.end.p0(i64 4, ptr %34) #5
  call void @llvm.lifetime.end.p0(i64 4, ptr %33) #5
  call void @llvm.lifetime.end.p0(i64 4, ptr %30) #5
  br label %182

182:                                              ; preds = %137, %99
  call void @llvm.lifetime.end.p0(i64 8, ptr %15) #5
  ret void
}